target datalayout = "e-m:e-p270:32:32-p271:32:32-p272:64:64-i64:64-i128:128-f80:128-n8:16:32:64-S128"
target triple = "x86_64-pc-linux-gnu"

%"class.grpc_core::TraceFlag" = type <{ ptr, ptr, %"struct.std::atomic", [7 x i8] }>
%"struct.std::atomic" = type { %"struct.std::__atomic_base" }
%"struct.std::__atomic_base" = type { i8 }
%"class.std::basic_string_view" = type { i64, ptr }
%"class.absl::lts_20240722::log_internal::Voidify" = type { i8 }
%"class.absl::lts_20240722::log_internal::LogMessage" = type { %"class.absl::lts_20240722::base_internal::ErrnoSaver", %"class.std::unique_ptr" }
%"class.absl::lts_20240722::base_internal::ErrnoSaver" = type { i32 }
%"class.std::unique_ptr" = type { %"struct.std::__uniq_ptr_data" }
%"struct.std::__uniq_ptr_data" = type { %"class.std::__uniq_ptr_impl" }
%"class.std::__uniq_ptr_impl" = type { %"class.std::tuple" }
%"class.std::tuple" = type { %"struct.std::_Tuple_impl" }
%"struct.std::_Tuple_impl" = type { %"struct.std::_Head_base.1" }
%"struct.std::_Head_base.1" = type { ptr }

@_ZN9grpc_core9api_traceE = external global %"class.grpc_core::TraceFlag", align 8
@.str = private unnamed_addr constant [127 x i8] c"generated/home/dtcxzyw/WorkSpace/Projects/compilers/llvm-opt-benchmark/bench/grpc/grpc/src/core/lib/compression/compression.cc\00", align 1
@.str.1 = private unnamed_addr constant [43 x i8] c"grpc_compression_algorithm_name(algorithm=\00", align 1
@.str.2 = private unnamed_addr constant [8 x i8] c", name=\00", align 1
@.str.3 = private unnamed_addr constant [2 x i8] c")\00", align 1

; Function Attrs: mustprogress nounwind uwtable
define linkonce_odr noundef i32 @_ZStanSt12memory_orderSt23__memory_order_modifier(i32 noundef %0, i32 noundef %1) #4 comdat {
  %3 = alloca i32, align 4
  %4 = alloca i32, align 4
  store i32 %0, ptr %3, align 4, !tbaa !67
  store i32 %1, ptr %4, align 4, !tbaa !72
  %5 = load i32, ptr %3, align 4, !tbaa !67
  %6 = load i32, ptr %4, align 4, !tbaa !72
  %7 = and i32 %5, %6
  ret i32 %7
}

; Function Attrs: noinline noreturn nounwind uwtable
define linkonce_odr hidden void @__clang_call_terminate(ptr noundef %0) #16 comdat {
  %2 = call ptr @__cxa_begin_catch(ptr %0) #3
  call void @_ZSt9terminatev() #21
  unreachable
}

; Function Attrs: mustprogress nounwind uwtable
define linkonce_odr noundef i64 @_ZNSt11char_traitsIcE6lengthEPKc(ptr noundef %0) #4 comdat align 2 {
  %2 = alloca ptr, align 8
  store ptr %0, ptr %2, align 8, !tbaa !20
  %3 = load ptr, ptr %2, align 8, !tbaa !20
  %4 = call i64 @strlen(ptr noundef %3) #3
  ret i64 %4
}

; Function Attrs: alwaysinline mustprogress nounwind uwtable
define linkonce_odr noundef zeroext i1 @_ZNKSt13__atomic_baseIbE4loadESt12memory_order(ptr noundef nonnull align 1 dereferenceable(1) %0, i32 noundef %1) #15 comdat align 2 personality ptr @__gxx_personality_v0 {
  %3 = alloca ptr, align 8
  %4 = alloca i32, align 4
  %5 = alloca i32, align 4
  %6 = alloca i8, align 1
  store ptr %0, ptr %3, align 8, !tbaa !69
  store i32 %1, ptr %4, align 4, !tbaa !67
  %7 = load ptr, ptr %3, align 8
  call void @llvm.lifetime.start.p0(i64 4, ptr %5) #3
  %8 = load i32, ptr %4, align 4, !tbaa !67
  %9 = invoke noundef i32 @_ZStanSt12memory_orderSt23__memory_order_modifier(i32 noundef %8, i32 noundef 65535)
          to label %10 unwind label %28

10:                                               ; preds = %2
  store i32 %9, ptr %5, align 4, !tbaa !67
  br label %11

11:                                               ; preds = %10
  br label %12

12:                                               ; preds = %11
  br label %13

13:                                               ; preds = %12
  br label %14

14:                                               ; preds = %13
  br label %15

15:                                               ; preds = %14
  br label %16

16:                                               ; preds = %15
  %17 = getelementptr inbounds nuw %"struct.std::__atomic_base", ptr %7, i32 0, i32 0
  %18 = load i32, ptr %4, align 4, !tbaa !67
  switch i32 %18, label %19 [
    i32 1, label %21
    i32 2, label %21
    i32 5, label %23
  ]

19:                                               ; preds = %16
  %20 = load atomic i8, ptr %17 monotonic, align 1
  store i8 %20, ptr %6, align 1
  br label %25

21:                                               ; preds = %16, %16
  %22 = load atomic i8, ptr %17 acquire, align 1
  store i8 %22, ptr %6, align 1
  br label %25

23:                                               ; preds = %16
  %24 = load atomic i8, ptr %17 seq_cst, align 1
  store i8 %24, ptr %6, align 1
  br label %25

25:                                               ; preds = %23, %21, %19
  %26 = load i8, ptr %6, align 1, !tbaa !71, !range !55, !noundef !56
  %27 = trunc i8 %26 to i1
  call void @llvm.lifetime.end.p0(i64 4, ptr %5) #3
  ret i1 %27

28:                                               ; preds = %2
  %29 = landingpad { ptr, i32 }
          catch ptr null
  %30 = extractvalue { ptr, i32 } %29, 0
  call void @__clang_call_terminate(ptr %30) #21
  unreachable
}

; Function Attrs: mustprogress nounwind uwtable
define linkonce_odr void @_ZNSt17basic_string_viewIcSt11char_traitsIcEEC2EPKc(ptr noundef nonnull align 8 dereferenceable(16) %0, ptr noundef nonnull %1) unnamed_addr #4 comdat align 2 personality ptr @__gxx_personality_v0 {
  %3 = alloca ptr, align 8
  %4 = alloca ptr, align 8
  store ptr %0, ptr %3, align 8, !tbaa !45
  store ptr %1, ptr %4, align 8, !tbaa !20
  %5 = load ptr, ptr %3, align 8
  %6 = getelementptr inbounds nuw %"class.std::basic_string_view", ptr %5, i32 0, i32 0
  %7 = load ptr, ptr %4, align 8, !tbaa !20
  %8 = invoke noundef i64 @_ZNSt11char_traitsIcE6lengthEPKc(ptr noundef %7)
          to label %9 unwind label %12

9:                                                ; preds = %2
  store i64 %8, ptr %6, align 8, !tbaa !47
  %10 = getelementptr inbounds nuw %"class.std::basic_string_view", ptr %5, i32 0, i32 1
  %11 = load ptr, ptr %4, align 8, !tbaa !20
  store ptr %11, ptr %10, align 8, !tbaa !49
  ret void

12:                                               ; preds = %2
  %13 = landingpad { ptr, i32 }
          catch ptr null
  %14 = extractvalue { ptr, i32 } %13, 0
  call void @__clang_call_terminate(ptr %14) #21
  unreachable
}

; Function Attrs: mustprogress nounwind uwtable
define linkonce_odr noundef zeroext i1 @_ZNKSt6atomicIbE4loadESt12memory_order(ptr noundef nonnull align 1 dereferenceable(1) %0, i32 noundef %1) #4 comdat align 2 {
  %3 = alloca ptr, align 8
  %4 = alloca i32, align 4
  store ptr %0, ptr %3, align 8, !tbaa !65
  store i32 %1, ptr %4, align 4, !tbaa !67
  %5 = load ptr, ptr %3, align 8
  %6 = getelementptr inbounds nuw %"struct.std::atomic", ptr %5, i32 0, i32 0
  %7 = load i32, ptr %4, align 4, !tbaa !67
  %8 = call noundef zeroext i1 @_ZNKSt13__atomic_baseIbE4loadESt12memory_order(ptr noundef nonnull align 1 dereferenceable(1) %6, i32 noundef %7) #3
  ret i1 %8
}

; Function Attrs: mustprogress nounwind uwtable
define linkonce_odr void @_ZNKO4absl12lts_2024072212log_internal7VoidifyaaINS1_10LogMessageEEEvRKT_(ptr noundef nonnull align 1 dereferenceable(1) %0, ptr noundef nonnull align 8 dereferenceable(16) %1) #4 comdat align 2 {
  %3 = alloca ptr, align 8
  %4 = alloca ptr, align 8
  store ptr %0, ptr %3, align 8, !tbaa !24
  store ptr %1, ptr %4, align 8, !tbaa !26
  ret void
}

; Function Attrs: mustprogress uwtable
define linkonce_odr noundef nonnull align 8 dereferenceable(16) ptr @_ZN4absl12lts_2024072212log_internal10LogMessagelsILi2EEERS2_RAT__Kc(ptr noundef nonnull align 8 dereferenceable(16) %0, ptr noundef nonnull align 1 dereferenceable(2) %1) #5 comdat align 2 {
  %3 = alloca ptr, align 8
  %4 = alloca ptr, align 8
  %5 = alloca %"class.std::basic_string_view", align 8
  store ptr %0, ptr %3, align 8, !tbaa !26
  store ptr %1, ptr %4, align 8, !tbaa !20
  %6 = load ptr, ptr %3, align 8
  %7 = load ptr, ptr %4, align 8, !tbaa !20
  %8 = getelementptr inbounds [2 x i8], ptr %7, i64 0, i64 0
  call void @_ZNSt17basic_string_viewIcSt11char_traitsIcEEC2EPKc(ptr noundef nonnull align 8 dereferenceable(16) %5, ptr noundef %8) #3
  %9 = getelementptr inbounds nuw { i64, ptr }, ptr %5, i32 0, i32 0
  %10 = load i64, ptr %9, align 8
  %11 = getelementptr inbounds nuw { i64, ptr }, ptr %5, i32 0, i32 1
  %12 = load ptr, ptr %11, align 8
  call void @_ZN4absl12lts_2024072212log_internal10LogMessage19CopyToEncodedBufferILNS2_10StringTypeE0EEEvSt17basic_string_viewIcSt11char_traitsIcEE(ptr noundef nonnull align 8 dereferenceable(16) %6, i64 %10, ptr %12)
  ret ptr %6
}

; Function Attrs: mustprogress uwtable
define linkonce_odr noundef nonnull align 8 dereferenceable(16) ptr @_ZN4absl12lts_2024072212log_internal10LogMessagelsILi8EEERS2_RAT__Kc(ptr noundef nonnull align 8 dereferenceable(16) %0, ptr noundef nonnull align 1 dereferenceable(8) %1) #5 comdat align 2 {
  %3 = alloca ptr, align 8
  %4 = alloca ptr, align 8
  %5 = alloca %"class.std::basic_string_view", align 8
  store ptr %0, ptr %3, align 8, !tbaa !26
  store ptr %1, ptr %4, align 8, !tbaa !20
  %6 = load ptr, ptr %3, align 8
  %7 = load ptr, ptr %4, align 8, !tbaa !20
  %8 = getelementptr inbounds [8 x i8], ptr %7, i64 0, i64 0
  call void @_ZNSt17basic_string_viewIcSt11char_traitsIcEEC2EPKc(ptr noundef nonnull align 8 dereferenceable(16) %5, ptr noundef %8) #3
  %9 = getelementptr inbounds nuw { i64, ptr }, ptr %5, i32 0, i32 0
  %10 = load i64, ptr %9, align 8
  %11 = getelementptr inbounds nuw { i64, ptr }, ptr %5, i32 0, i32 1
  %12 = load ptr, ptr %11, align 8
  call void @_ZN4absl12lts_2024072212log_internal10LogMessage19CopyToEncodedBufferILNS2_10StringTypeE0EEEvSt17basic_string_viewIcSt11char_traitsIcEE(ptr noundef nonnull align 8 dereferenceable(16) %6, i64 %10, ptr %12)
  ret ptr %6
}

; Function Attrs: mustprogress uwtable
define linkonce_odr noundef nonnull align 8 dereferenceable(16) ptr @_ZN4absl12lts_2024072212log_internal10LogMessagelsEi(ptr noundef nonnull align 8 dereferenceable(16) %0, i32 noundef %1) #5 comdat align 2 {
  %3 = alloca ptr, align 8
  %4 = alloca i32, align 4
  store ptr %0, ptr %3, align 8, !tbaa !26
  store i32 %1, ptr %4, align 4, !tbaa !28
  %5 = load ptr, ptr %3, align 8
  %6 = call noundef nonnull align 8 dereferenceable(16) ptr @_ZN4absl12lts_2024072212log_internal10LogMessagelsIiTnNSt9enable_ifIXntsr4absl16HasAbslStringifyIT_EE5valueEiE4typeELi0EEERS2_RKS5_(ptr noundef nonnull align 8 dereferenceable(16) %5, ptr noundef nonnull align 4 dereferenceable(4) %4)
  ret ptr %6
}

; Function Attrs: mustprogress uwtable
define linkonce_odr noundef nonnull align 8 dereferenceable(16) ptr @_ZN4absl12lts_2024072212log_internal10LogMessagelsILi43EEERS2_RAT__Kc(ptr noundef nonnull align 8 dereferenceable(16) %0, ptr noundef nonnull align 1 dereferenceable(43) %1) #5 comdat align 2 {
  %3 = alloca ptr, align 8
  %4 = alloca ptr, align 8
  %5 = alloca %"class.std::basic_string_view", align 8
  store ptr %0, ptr %3, align 8, !tbaa !26
  store ptr %1, ptr %4, align 8, !tbaa !20
  %6 = load ptr, ptr %3, align 8
  %7 = load ptr, ptr %4, align 8, !tbaa !20
  %8 = getelementptr inbounds [43 x i8], ptr %7, i64 0, i64 0
  call void @_ZNSt17basic_string_viewIcSt11char_traitsIcEEC2EPKc(ptr noundef nonnull align 8 dereferenceable(16) %5, ptr noundef %8) #3
  %9 = getelementptr inbounds nuw { i64, ptr }, ptr %5, i32 0, i32 0
  %10 = load i64, ptr %9, align 8
  %11 = getelementptr inbounds nuw { i64, ptr }, ptr %5, i32 0, i32 1
  %12 = load ptr, ptr %11, align 8
  call void @_ZN4absl12lts_2024072212log_internal10LogMessage19CopyToEncodedBufferILNS2_10StringTypeE0EEEvSt17basic_string_viewIcSt11char_traitsIcEE(ptr noundef nonnull align 8 dereferenceable(16) %6, i64 %10, ptr %12)
  ret ptr %6
}

; Function Attrs: mustprogress nounwind uwtable
define linkonce_odr noundef nonnull align 8 dereferenceable(16) ptr @_ZN4absl12lts_2024072212log_internal10LogMessage14InternalStreamEv(ptr noundef nonnull align 8 dereferenceable(16) %0) #4 comdat align 2 {
  %2 = alloca ptr, align 8
  store ptr %0, ptr %2, align 8, !tbaa !26
  %3 = load ptr, ptr %2, align 8
  ret ptr %3
}

; Function Attrs: mustprogress nounwind uwtable
define linkonce_odr noundef zeroext i1 @_ZN9grpc_core9TraceFlag7enabledEv(ptr noundef nonnull align 8 dereferenceable(17) %0) #4 comdat align 2 {
  %2 = alloca ptr, align 8
  store ptr %0, ptr %2, align 8, !tbaa !22
  %3 = load ptr, ptr %2, align 8
  %4 = getelementptr inbounds nuw %"class.grpc_core::TraceFlag", ptr %3, i32 0, i32 2
  %5 = call noundef zeroext i1 @_ZNKSt6atomicIbE4loadESt12memory_order(ptr noundef nonnull align 1 dereferenceable(1) %4, i32 noundef 0) #3
  ret i1 %5
}

; Function Attrs: mustprogress uwtable
define i32 @grpc_compression_algorithm_name(i32 noundef %0, ptr noundef %1) #5 personality ptr @__gxx_personality_v0 {
  %3 = alloca i32, align 4
  %4 = alloca i32, align 4
  %5 = alloca ptr, align 8
  %6 = alloca %"class.absl::lts_20240722::log_internal::Voidify", align 1
  %7 = alloca %"class.absl::lts_20240722::log_internal::LogMessage", align 8
  %8 = alloca i1, align 1
  %9 = alloca i1, align 1
  %10 = alloca ptr, align 8
  %11 = alloca i32, align 4
  %12 = alloca ptr, align 8
  %13 = alloca i32, align 4
  store i32 %0, ptr %4, align 4, !tbaa !3
  store ptr %1, ptr %5, align 8, !tbaa !17
  %14 = call noundef zeroext i1 @_ZN9grpc_core9TraceFlag7enabledEv(ptr noundef nonnull align 8 dereferenceable(17) @_ZN9grpc_core9api_traceE)
  %15 = zext i1 %14 to i64
  %16 = call i64 @llvm.expect.i64(i64 %15, i64 0)
  %17 = icmp ne i64 %16, 0
  call void @llvm.lifetime.start.p0(i64 1, ptr %6) #3
  store i1 false, ptr %8, align 1
  store i1 false, ptr %9, align 1
  br i1 %17, label %19, label %18

18:                                               ; preds = %2
  br label %34

19:                                               ; preds = %2
  call void @llvm.lifetime.start.p0(i64 16, ptr %7) #3
  store i1 true, ptr %8, align 1
  call void @_ZN4absl12lts_2024072212log_internal10LogMessageC1EPKciNS2_7InfoTagE(ptr noundef nonnull align 8 dereferenceable(16) %7, ptr noundef @.str, i32 noundef 55) #18
  store i1 true, ptr %9, align 1
  %20 = invoke noundef nonnull align 8 dereferenceable(16) ptr @_ZN4absl12lts_2024072212log_internal10LogMessage14InternalStreamEv(ptr noundef nonnull align 8 dereferenceable(16) %7)
          to label %21 unwind label %48

21:                                               ; preds = %19
  %22 = invoke noundef nonnull align 8 dereferenceable(16) ptr @_ZN4absl12lts_2024072212log_internal10LogMessagelsILi43EEERS2_RAT__Kc(ptr noundef nonnull align 8 dereferenceable(16) %20, ptr noundef nonnull align 1 dereferenceable(43) @.str.1)
          to label %23 unwind label %48

23:                                               ; preds = %21
  %24 = load i32, ptr %4, align 4, !tbaa !3
  %25 = invoke noundef nonnull align 8 dereferenceable(16) ptr @_ZN4absl12lts_2024072212log_internal10LogMessagelsEi(ptr noundef nonnull align 8 dereferenceable(16) %22, i32 noundef %24)
          to label %26 unwind label %48

26:                                               ; preds = %23
  %27 = invoke noundef nonnull align 8 dereferenceable(16) ptr @_ZN4absl12lts_2024072212log_internal10LogMessagelsILi8EEERS2_RAT__Kc(ptr noundef nonnull align 8 dereferenceable(16) %25, ptr noundef nonnull align 1 dereferenceable(8) @.str.2)
          to label %28 unwind label %48

28:                                               ; preds = %26
  %29 = invoke noundef nonnull align 8 dereferenceable(16) ptr @_ZN4absl12lts_2024072212log_internal10LogMessagelsIPPKcTnNSt9enable_ifIXntsr4absl16HasAbslStringifyIT_EE5valueEiE4typeELi0EEERS2_RKS8_(ptr noundef nonnull align 8 dereferenceable(16) %27, ptr noundef nonnull align 8 dereferenceable(8) %5)
          to label %30 unwind label %48

30:                                               ; preds = %28
  %31 = invoke noundef nonnull align 8 dereferenceable(16) ptr @_ZN4absl12lts_2024072212log_internal10LogMessagelsILi2EEERS2_RAT__Kc(ptr noundef nonnull align 8 dereferenceable(16) %29, ptr noundef nonnull align 1 dereferenceable(2) @.str.3)
          to label %32 unwind label %48

32:                                               ; preds = %30
  invoke void @_ZNKO4absl12lts_2024072212log_internal7VoidifyaaINS1_10LogMessageEEEvRKT_(ptr noundef nonnull align 1 dereferenceable(1) %6, ptr noundef nonnull align 8 dereferenceable(16) %31)
          to label %33 unwind label %48

33:                                               ; preds = %32
  br label %34

34:                                               ; preds = %33, %18
  %35 = load i1, ptr %9, align 1
  br i1 %35, label %36, label %37

36:                                               ; preds = %34
  call void @_ZN4absl12lts_2024072212log_internal10LogMessageD1Ev(ptr noundef nonnull align 8 dereferenceable(16) %7) #19
  br label %37

37:                                               ; preds = %36, %34
  %38 = load i1, ptr %8, align 1
  br i1 %38, label %39, label %40

39:                                               ; preds = %37
  call void @llvm.lifetime.end.p0(i64 16, ptr %7) #3
  br label %40

40:                                               ; preds = %39, %37
  call void @llvm.lifetime.end.p0(i64 1, ptr %6) #3
  call void @llvm.lifetime.start.p0(i64 8, ptr %12) #3
  %41 = load i32, ptr %4, align 4, !tbaa !3
  %42 = call noundef ptr @_ZN9grpc_core28CompressionAlgorithmAsStringE26grpc_compression_algorithm(i32 noundef %41)
  store ptr %42, ptr %12, align 8, !tbaa !20
  %43 = load ptr, ptr %12, align 8, !tbaa !20
  %44 = icmp ne ptr %43, null
  br i1 %44, label %45, label %58

45:                                               ; preds = %40
  %46 = load ptr, ptr %12, align 8, !tbaa !20
  %47 = load ptr, ptr %5, align 8, !tbaa !17
  store ptr %46, ptr %47, align 8, !tbaa !20
  store i32 1, ptr %3, align 4
  store i32 1, ptr %13, align 4
  br label %59

48:                                               ; preds = %32, %30, %28, %26, %23, %21, %19
  %49 = landingpad { ptr, i32 }
          cleanup
  %50 = extractvalue { ptr, i32 } %49, 0
  store ptr %50, ptr %10, align 8
  %51 = extractvalue { ptr, i32 } %49, 1
  store i32 %51, ptr %11, align 4
  %52 = load i1, ptr %9, align 1
  br i1 %52, label %53, label %54

53:                                               ; preds = %48
  call void @_ZN4absl12lts_2024072212log_internal10LogMessageD1Ev(ptr noundef nonnull align 8 dereferenceable(16) %7) #19
  br label %54

54:                                               ; preds = %53, %48
  %55 = load i1, ptr %8, align 1
  br i1 %55, label %56, label %57

56:                                               ; preds = %54
  call void @llvm.lifetime.end.p0(i64 16, ptr %7) #3
  br label %57

57:                                               ; preds = %56, %54
  call void @llvm.lifetime.end.p0(i64 1, ptr %6) #3
  br label %61

58:                                               ; preds = %40
  store i32 0, ptr %3, align 4
  store i32 1, ptr %13, align 4
  br label %59

59:                                               ; preds = %58, %45
  call void @llvm.lifetime.end.p0(i64 8, ptr %12) #3
  %60 = load i32, ptr %3, align 4
  ret i32 %60

61:                                               ; preds = %57
  %62 = load ptr, ptr %10, align 8
  %63 = load i32, ptr %11, align 4
  %64 = insertvalue { ptr, i32 } poison, ptr %62, 0
  %65 = insertvalue { ptr, i32 } %64, i32 %63, 1
  resume { ptr, i32 } %65
}