; Function Attrs: mustprogress uwtable
define range(i32 0, 2) i32 @grpc_compression_algorithm_name(i32 noundef %0, ptr noundef %1) local_unnamed_addr #4 personality ptr @__gxx_personality_v0 {
  %3 = alloca i32, align 4
  %4 = alloca ptr, align 8
  %5 = alloca %"class.absl::lts_20240722::log_internal::LogMessage", align 8
  store ptr %1, ptr %4, align 8, !tbaa !11
  %6 = load atomic i8, ptr getelementptr inbounds nuw (i8, ptr @_ZN9grpc_core9api_traceE, i64 16) monotonic, align 8
  %7 = trunc i8 %6 to i1
  br i1 %7, label %8, label %.critedge13, !prof !14

8:                                                ; preds = %2
  call void @llvm.lifetime.start.p0(i64 16, ptr nonnull %5) #13
  call void @_ZN4absl12lts_2024072212log_internal10LogMessageC1EPKciNS2_7InfoTagE(ptr noundef nonnull align 8 dereferenceable(16) %5, ptr noundef nonnull @.str, i32 noundef 55) #14
  invoke void @_ZN4absl12lts_2024072212log_internal10LogMessage19CopyToEncodedBufferILNS2_10StringTypeE0EEEvSt17basic_string_viewIcSt11char_traitsIcEE(ptr noundef nonnull align 8 dereferenceable(16) %5, i64 42, ptr nonnull @.str.1)
          to label %_ZN4absl12lts_2024072212log_internal10LogMessagelsILi43EEERS2_RAT__Kc.exit unwind label %16

_ZN4absl12lts_2024072212log_internal10LogMessagelsILi43EEERS2_RAT__Kc.exit: ; preds = %8
  call void @llvm.lifetime.start.p0(i64 4, ptr nonnull %3)
  store i32 %0, ptr %3, align 4, !tbaa !15
  %9 = invoke noundef nonnull align 8 dereferenceable(16) ptr @_ZN4absl12lts_2024072212log_internal10LogMessagelsIiTnNSt9enable_ifIXntsr4absl16HasAbslStringifyIT_EE5valueEiE4typeELi0EEERS2_RKS5_(ptr noundef nonnull align 8 dereferenceable(16) %5, ptr noundef nonnull align 4 dereferenceable(4) %3)
          to label %10 unwind label %16

10:                                               ; preds = %_ZN4absl12lts_2024072212log_internal10LogMessagelsILi43EEERS2_RAT__Kc.exit
  call void @llvm.lifetime.end.p0(i64 4, ptr nonnull %3)
  invoke void @_ZN4absl12lts_2024072212log_internal10LogMessage19CopyToEncodedBufferILNS2_10StringTypeE0EEEvSt17basic_string_viewIcSt11char_traitsIcEE(ptr noundef nonnull align 8 dereferenceable(16) %9, i64 7, ptr nonnull @.str.2)
          to label %_ZN4absl12lts_2024072212log_internal10LogMessagelsILi8EEERS2_RAT__Kc.exit unwind label %16

_ZN4absl12lts_2024072212log_internal10LogMessagelsILi8EEERS2_RAT__Kc.exit: ; preds = %10
  %11 = invoke noundef nonnull align 8 dereferenceable(16) ptr @_ZN4absl12lts_2024072212log_internal10LogMessagelsIPPKcTnNSt9enable_ifIXntsr4absl16HasAbslStringifyIT_EE5valueEiE4typeELi0EEERS2_RKS8_(ptr noundef nonnull align 8 dereferenceable(16) %9, ptr noundef nonnull align 8 dereferenceable(8) %4)
          to label %12 unwind label %16

12:                                               ; preds = %_ZN4absl12lts_2024072212log_internal10LogMessagelsILi8EEERS2_RAT__Kc.exit
  invoke void @_ZN4absl12lts_2024072212log_internal10LogMessage19CopyToEncodedBufferILNS2_10StringTypeE0EEEvSt17basic_string_viewIcSt11char_traitsIcEE(ptr noundef nonnull align 8 dereferenceable(16) %11, i64 1, ptr nonnull @.str.3)
          to label %.critedge unwind label %16

.critedge:                                        ; preds = %12
  call void @_ZN4absl12lts_2024072212log_internal10LogMessageD1Ev(ptr noundef nonnull align 8 dereferenceable(16) %5) #15
  call void @llvm.lifetime.end.p0(i64 16, ptr nonnull %5) #13
  br label %.critedge13

.critedge13:                                      ; preds = %2, %.critedge
  %13 = call noundef ptr @_ZN9grpc_core28CompressionAlgorithmAsStringE26grpc_compression_algorithm(i32 noundef %0)
  %.not = icmp eq ptr %13, null
  br i1 %.not, label %18, label %14

14:                                               ; preds = %.critedge13
  %15 = load ptr, ptr %4, align 8, !tbaa !11
  store ptr %13, ptr %15, align 8, !tbaa !17
  br label %18

16:                                               ; preds = %12, %10, %_ZN4absl12lts_2024072212log_internal10LogMessagelsILi43EEERS2_RAT__Kc.exit, %8, %_ZN4absl12lts_2024072212log_internal10LogMessagelsILi8EEERS2_RAT__Kc.exit
  %17 = landingpad { ptr, i32 }
          cleanup
  call void @_ZN4absl12lts_2024072212log_internal10LogMessageD1Ev(ptr noundef nonnull align 8 dereferenceable(16) %5) #15
  call void @llvm.lifetime.end.p0(i64 16, ptr nonnull %5) #13
  resume { ptr, i32 } %17

18:                                               ; preds = %.critedge13, %14
  %.0 = phi i32 [ 1, %14 ], [ 0, %.critedge13 ]
  ret i32 %.0
}